target datalayout = "e-m:e-p270:32:32-p271:32:32-p272:64:64-i64:64-i128:128-f80:128-n8:16:32:64-S128"
target triple = "x86_64-pc-linux-gnu"

%struct.ident_t = type { i32, i32, i32, i32, ptr }
%"class.LightGBM::RegressionL2loss" = type <{ %"class.LightGBM::ObjectiveFunction", i8, [3 x i8], i32, ptr, ptr, %"class.std::vector", i8, [7 x i8] }>
%"class.LightGBM::ObjectiveFunction" = type { ptr }
%"class.std::vector" = type { %"struct.std::_Vector_base" }
%"struct.std::_Vector_base" = type { %"struct.std::_Vector_base<float, std::allocator<float>>::_Vector_impl" }
%"struct.std::_Vector_base<float, std::allocator<float>>::_Vector_impl" = type { %"struct.std::_Vector_base<float, std::allocator<float>>::_Vector_impl_data" }
%"struct.std::_Vector_base<float, std::allocator<float>>::_Vector_impl_data" = type { ptr, ptr, ptr }
%"class.LightGBM::RegressionL2loss.base" = type <{ %"class.LightGBM::ObjectiveFunction", i8, [3 x i8], i32, ptr, ptr, %"class.std::vector", i8 }>
%"class.LightGBM::RegressionPoissonLoss" = type { %"class.LightGBM::RegressionL2loss.base", double }
%"class.LightGBM::RegressionTweedieLoss" = type { %"class.LightGBM::RegressionPoissonLoss", double }

@1 = private unnamed_addr constant %struct.ident_t { i32 0, i32 514, i32 0, i32 22, ptr @0 }, align 8

; Function Attrs: alwaysinline norecurse nounwind uwtable
define internal void @_ZNK8LightGBM21RegressionTweedieLoss12GetGradientsEPKdPfS3_.omp_outlined(ptr noalias noundef %0, ptr noalias noundef %1, ptr noundef %2, ptr noundef nonnull align 8 dereferenceable(8) %3, ptr noundef nonnull align 8 dereferenceable(8) %4, ptr noundef nonnull align 8 dereferenceable(8) %5) #16 {
  %7 = alloca ptr, align 8
  %8 = alloca ptr, align 8
  %9 = alloca ptr, align 8
  %10 = alloca ptr, align 8
  %11 = alloca ptr, align 8
  %12 = alloca ptr, align 8
  %13 = alloca i32, align 4
  %14 = alloca i32, align 4
  %15 = alloca i32, align 4
  %16 = alloca i32, align 4
  %17 = alloca i32, align 4
  %18 = alloca i32, align 4
  %19 = alloca i32, align 4
  %20 = alloca i32, align 4
  %21 = alloca i32, align 4
  %22 = alloca double, align 8
  %23 = alloca double, align 8
  store ptr %0, ptr %7, align 8, !tbaa !193
  store ptr %1, ptr %8, align 8, !tbaa !193
  store ptr %2, ptr %9, align 8, !tbaa !161
  store ptr %3, ptr %10, align 8, !tbaa !224
  store ptr %4, ptr %11, align 8, !tbaa !216
  store ptr %5, ptr %12, align 8, !tbaa !216
  %24 = load ptr, ptr %9, align 8, !tbaa !161
  %25 = load ptr, ptr %10, align 8, !tbaa !224
  %26 = load ptr, ptr %11, align 8, !tbaa !216
  %27 = load ptr, ptr %12, align 8, !tbaa !216
  call void @llvm.lifetime.start.p0(i64 4, ptr %13) #3
  call void @llvm.lifetime.start.p0(i64 4, ptr %14) #3
  %28 = getelementptr inbounds nuw %"class.LightGBM::RegressionL2loss", ptr %24, i32 0, i32 3
  %29 = load i32, ptr %28, align 4, !tbaa !188
  store i32 %29, ptr %14, align 4, !tbaa !141
  call void @llvm.lifetime.start.p0(i64 4, ptr %15) #3
  %30 = load i32, ptr %14, align 4, !tbaa !141
  %31 = sub nsw i32 %30, 0
  %32 = sdiv i32 %31, 1
  %33 = sub nsw i32 %32, 1
  store i32 %33, ptr %15, align 4, !tbaa !141
  call void @llvm.lifetime.start.p0(i64 4, ptr %16) #3
  store i32 0, ptr %16, align 4, !tbaa !141
  call void @llvm.lifetime.end.p0(i64 4, ptr %16) #3
  %34 = load i32, ptr %14, align 4, !tbaa !141
  %35 = icmp slt i32 0, %34
  br i1 %35, label %36, label %127

36:                                               ; preds = %6
  call void @llvm.lifetime.start.p0(i64 4, ptr %17) #3
  store i32 0, ptr %17, align 4, !tbaa !141
  call void @llvm.lifetime.start.p0(i64 4, ptr %18) #3
  %37 = load i32, ptr %15, align 4, !tbaa !141
  store i32 %37, ptr %18, align 4, !tbaa !141
  call void @llvm.lifetime.start.p0(i64 4, ptr %19) #3
  store i32 1, ptr %19, align 4, !tbaa !141
  call void @llvm.lifetime.start.p0(i64 4, ptr %20) #3
  store i32 0, ptr %20, align 4, !tbaa !141
  call void @llvm.lifetime.start.p0(i64 4, ptr %21) #3
  %38 = load ptr, ptr %7, align 8
  %39 = load i32, ptr %38, align 4, !tbaa !141
  call void @__kmpc_for_static_init_4(ptr @1, i32 %39, i32 34, ptr %20, ptr %17, ptr %18, ptr %19, i32 1, i32 1)
  %40 = load i32, ptr %18, align 4, !tbaa !141
  %41 = load i32, ptr %15, align 4, !tbaa !141
  %42 = icmp sgt i32 %40, %41
  br i1 %42, label %43, label %45

43:                                               ; preds = %36
  %44 = load i32, ptr %15, align 4, !tbaa !141
  br label %47

45:                                               ; preds = %36
  %46 = load i32, ptr %18, align 4, !tbaa !141
  br label %47

47:                                               ; preds = %45, %43
  %48 = phi i32 [ %44, %43 ], [ %46, %45 ]
  store i32 %48, ptr %18, align 4, !tbaa !141
  %49 = load i32, ptr %17, align 4, !tbaa !141
  store i32 %49, ptr %13, align 4, !tbaa !141
  br label %50

50:                                               ; preds = %120, %47
  %51 = load i32, ptr %13, align 4, !tbaa !141
  %52 = load i32, ptr %18, align 4, !tbaa !141
  %53 = icmp sle i32 %51, %52
  br i1 %53, label %55, label %54

54:                                               ; preds = %50
  br label %123

55:                                               ; preds = %50
  %56 = load i32, ptr %13, align 4, !tbaa !141
  %57 = mul nsw i32 %56, 1
  %58 = add nsw i32 0, %57
  store i32 %58, ptr %21, align 4, !tbaa !141
  call void @llvm.lifetime.start.p0(i64 8, ptr %22) #3
  %59 = getelementptr inbounds nuw %"class.LightGBM::RegressionTweedieLoss", ptr %24, i32 0, i32 1
  %60 = load double, ptr %59, align 8, !tbaa !164
  %61 = fsub double 1.000000e+00, %60
  %62 = load ptr, ptr %25, align 8, !tbaa !191
  %63 = load i32, ptr %21, align 4, !tbaa !141
  %64 = sext i32 %63 to i64
  %65 = getelementptr inbounds double, ptr %62, i64 %64
  %66 = load double, ptr %65, align 8, !tbaa !194
  %67 = fmul double %61, %66
  %68 = call double @exp(double noundef %67) #3, !tbaa !141
  store double %68, ptr %22, align 8, !tbaa !194
  call void @llvm.lifetime.start.p0(i64 8, ptr %23) #3
  %69 = getelementptr inbounds nuw %"class.LightGBM::RegressionTweedieLoss", ptr %24, i32 0, i32 1
  %70 = load double, ptr %69, align 8, !tbaa !164
  %71 = fsub double 2.000000e+00, %70
  %72 = load ptr, ptr %25, align 8, !tbaa !191
  %73 = load i32, ptr %21, align 4, !tbaa !141
  %74 = sext i32 %73 to i64
  %75 = getelementptr inbounds double, ptr %72, i64 %74
  %76 = load double, ptr %75, align 8, !tbaa !194
  %77 = fmul double %71, %76
  %78 = call double @exp(double noundef %77) #3, !tbaa !141
  store double %78, ptr %23, align 8, !tbaa !194
  %79 = getelementptr inbounds nuw %"class.LightGBM::RegressionL2loss", ptr %24, i32 0, i32 4
  %80 = load ptr, ptr %79, align 8, !tbaa !189
  %81 = load i32, ptr %21, align 4, !tbaa !141
  %82 = sext i32 %81 to i64
  %83 = getelementptr inbounds float, ptr %80, i64 %82
  %84 = load float, ptr %83, align 4, !tbaa !210
  %85 = fneg float %84
  %86 = fpext float %85 to double
  %87 = load double, ptr %22, align 8, !tbaa !194
  %88 = load double, ptr %23, align 8, !tbaa !194
  %89 = call double @llvm.fmuladd.f64(double %86, double %87, double %88)
  %90 = fptrunc double %89 to float
  %91 = load ptr, ptr %26, align 8, !tbaa !192
  %92 = load i32, ptr %21, align 4, !tbaa !141
  %93 = sext i32 %92 to i64
  %94 = getelementptr inbounds float, ptr %91, i64 %93
  store float %90, ptr %94, align 4, !tbaa !210
  %95 = getelementptr inbounds nuw %"class.LightGBM::RegressionL2loss", ptr %24, i32 0, i32 4
  %96 = load ptr, ptr %95, align 8, !tbaa !189
  %97 = load i32, ptr %21, align 4, !tbaa !141
  %98 = sext i32 %97 to i64
  %99 = getelementptr inbounds float, ptr %96, i64 %98
  %100 = load float, ptr %99, align 4, !tbaa !210
  %101 = fneg float %100
  %102 = fpext float %101 to double
  %103 = getelementptr inbounds nuw %"class.LightGBM::RegressionTweedieLoss", ptr %24, i32 0, i32 1
  %104 = load double, ptr %103, align 8, !tbaa !164
  %105 = fsub double 1.000000e+00, %104
  %106 = fmul double %102, %105
  %107 = load double, ptr %22, align 8, !tbaa !194
  %108 = getelementptr inbounds nuw %"class.LightGBM::RegressionTweedieLoss", ptr %24, i32 0, i32 1
  %109 = load double, ptr %108, align 8, !tbaa !164
  %110 = fsub double 2.000000e+00, %109
  %111 = load double, ptr %23, align 8, !tbaa !194
  %112 = fmul double %110, %111
  %113 = call double @llvm.fmuladd.f64(double %106, double %107, double %112)
  %114 = fptrunc double %113 to float
  %115 = load ptr, ptr %27, align 8, !tbaa !192
  %116 = load i32, ptr %21, align 4, !tbaa !141
  %117 = sext i32 %116 to i64
  %118 = getelementptr inbounds float, ptr %115, i64 %117
  store float %114, ptr %118, align 4, !tbaa !210
  call void @llvm.lifetime.end.p0(i64 8, ptr %23) #3
  call void @llvm.lifetime.end.p0(i64 8, ptr %22) #3
  br label %119

119:                                              ; preds = %55
  br label %120

120:                                              ; preds = %119
  %121 = load i32, ptr %13, align 4, !tbaa !141
  %122 = add nsw i32 %121, 1
  store i32 %122, ptr %13, align 4, !tbaa !141
  br label %50

123:                                              ; preds = %54
  br label %124

124:                                              ; preds = %123
  %125 = load ptr, ptr %7, align 8
  %126 = load i32, ptr %125, align 4, !tbaa !141
  call void @__kmpc_for_static_fini(ptr @1, i32 %126)
  call void @llvm.lifetime.end.p0(i64 4, ptr %21) #3
  call void @llvm.lifetime.end.p0(i64 4, ptr %20) #3
  call void @llvm.lifetime.end.p0(i64 4, ptr %19) #3
  call void @llvm.lifetime.end.p0(i64 4, ptr %18) #3
  call void @llvm.lifetime.end.p0(i64 4, ptr %17) #3
  br label %127

127:                                              ; preds = %124, %6
  call void @llvm.lifetime.end.p0(i64 4, ptr %15) #3
  call void @llvm.lifetime.end.p0(i64 4, ptr %14) #3
  call void @llvm.lifetime.end.p0(i64 4, ptr %13) #3
  ret void
}