; Function Attrs: alwaysinline norecurse nounwind uwtable
define internal void @_ZNK8LightGBM21RegressionTweedieLoss12GetGradientsEPKdPfS3_.omp_outlined(ptr noalias noundef readonly captures(none) %0, ptr noalias readnone captures(none) %1, ptr noundef readonly captures(none) %2, ptr noundef nonnull readonly align 8 captures(none) dereferenceable(8) %3, ptr noundef nonnull readonly align 8 captures(none) dereferenceable(8) %4, ptr noundef nonnull readonly align 8 captures(none) dereferenceable(8) %5) #14 {
  %7 = alloca i32, align 4
  %8 = alloca i32, align 4
  %9 = alloca i32, align 4
  %10 = alloca i32, align 4
  %11 = getelementptr inbounds nuw i8, ptr %2, i64 12
  %12 = load i32, ptr %11, align 4, !tbaa !147
  %13 = icmp sgt i32 %12, 0
  br i1 %13, label %14, label %54

14:                                               ; preds = %6
  %15 = add nsw i32 %12, -1
  call void @llvm.lifetime.start.p0(i64 4, ptr nonnull %7) #15
  store i32 0, ptr %7, align 4, !tbaa !127
  call void @llvm.lifetime.start.p0(i64 4, ptr nonnull %8) #15
  store i32 %15, ptr %8, align 4, !tbaa !127
  call void @llvm.lifetime.start.p0(i64 4, ptr nonnull %9) #15
  store i32 1, ptr %9, align 4, !tbaa !127
  call void @llvm.lifetime.start.p0(i64 4, ptr nonnull %10) #15
  store i32 0, ptr %10, align 4, !tbaa !127
  %16 = load i32, ptr %0, align 4, !tbaa !127
  call void @__kmpc_for_static_init_4(ptr nonnull @1, i32 %16, i32 34, ptr nonnull %10, ptr nonnull %7, ptr nonnull %8, ptr nonnull %9, i32 1, i32 1)
  %17 = load i32, ptr %8, align 4, !tbaa !127
  %18 = call i32 @llvm.smin.i32(i32 %17, i32 %15)
  store i32 %18, ptr %8, align 4, !tbaa !127
  %19 = load i32, ptr %7, align 4, !tbaa !127
  %.not23 = icmp sgt i32 %19, %18
  br i1 %.not23, label %._crit_edge, label %.lr.ph

.lr.ph:                                           ; preds = %14
  %20 = getelementptr inbounds nuw i8, ptr %2, i64 72
  %21 = load double, ptr %20, align 8, !tbaa !142
  %22 = fsub double 1.000000e+00, %21
  %23 = load ptr, ptr %3, align 8, !tbaa !152
  %24 = fsub double 2.000000e+00, %21
  %25 = getelementptr inbounds nuw i8, ptr %2, i64 16
  %26 = load ptr, ptr %25, align 8, !tbaa !148
  %27 = load ptr, ptr %4, align 8, !tbaa !150
  %28 = load ptr, ptr %5, align 8, !tbaa !150
  %29 = sext i32 %19 to i64
  br label %30

30:                                               ; preds = %.lr.ph, %30
  %indvars.iv = phi i64 [ %29, %.lr.ph ], [ %indvars.iv.next, %30 ]
  %31 = getelementptr inbounds double, ptr %23, i64 %indvars.iv
  %32 = load double, ptr %31, align 8, !tbaa !153
  %33 = fmul double %22, %32
  %34 = call double @exp(double noundef %33) #15, !tbaa !127
  %35 = fmul double %24, %32
  %36 = call double @exp(double noundef %35) #15, !tbaa !127
  %37 = getelementptr inbounds float, ptr %26, i64 %indvars.iv
  %38 = load float, ptr %37, align 4, !tbaa !175
  %39 = fneg float %38
  %40 = fpext float %39 to double
  %41 = call double @llvm.fmuladd.f64(double %40, double %34, double %36)
  %42 = fptrunc double %41 to float
  %43 = getelementptr inbounds float, ptr %27, i64 %indvars.iv
  store float %42, ptr %43, align 4, !tbaa !175
  %44 = load float, ptr %37, align 4, !tbaa !175
  %45 = fneg float %44
  %46 = fpext float %45 to double
  %47 = fmul double %22, %46
  %48 = fmul double %24, %36
  %49 = call double @llvm.fmuladd.f64(double %47, double %34, double %48)
  %50 = fptrunc double %49 to float
  %51 = getelementptr inbounds float, ptr %28, i64 %indvars.iv
  store float %50, ptr %51, align 4, !tbaa !175
  %indvars.iv.next = add nsw i64 %indvars.iv, 1
  %52 = load i32, ptr %8, align 4, !tbaa !127
  %53 = sext i32 %52 to i64
  %.not.not = icmp slt i64 %indvars.iv, %53
  br i1 %.not.not, label %30, label %._crit_edge

._crit_edge:                                      ; preds = %30, %14
  call void @__kmpc_for_static_fini(ptr nonnull @1, i32 %16)
  call void @llvm.lifetime.end.p0(i64 4, ptr nonnull %10) #15
  call void @llvm.lifetime.end.p0(i64 4, ptr nonnull %9) #15
  call void @llvm.lifetime.end.p0(i64 4, ptr nonnull %8) #15
  call void @llvm.lifetime.end.p0(i64 4, ptr nonnull %7) #15
  br label %54

54:                                               ; preds = %._crit_edge, %6
  ret void
}